; ModuleID = 'source-C-CXX/59/423.c'
source_filename = "source-C-CXX/59/423.c"
target datalayout = "e-m:e-p270:32:32-p271:32:32-p272:64:64-i64:64-f80:128-n8:16:32:64-S128"
target triple = "x86_64-pc-linux-gnu"

@.str = private unnamed_addr constant [3 x i8] c"%d\00", align 1
@.str.1 = private unnamed_addr constant [7 x i8] c"%d %d\0A\00", align 1
@.str.2 = private unnamed_addr constant [6 x i8] c"empty\00", align 1

; Function Attrs: nofree nounwind sspstrong uwtable
define dso_local void @main() local_unnamed_addr #0 {
  %1 = alloca i32, align 4
  %2 = alloca [10000 x i32], align 16
  %3 = bitcast i32* %1 to i8*
  call void @llvm.lifetime.start.p0i8(i64 4, i8* nonnull %3) #3
  %4 = bitcast [10000 x i32]* %2 to i8*
  call void @llvm.lifetime.start.p0i8(i64 40000, i8* nonnull %4) #3
  %5 = call i32 (i8*, ...) @__isoc99_scanf(i8* getelementptr inbounds ([3 x i8], [3 x i8]* @.str, i64 0, i64 0), i32* nonnull %1)
  %6 = load i32, i32* %1, align 4, !tbaa !5
  %7 = icmp slt i32 %6, 3
  br i1 %7, label %50, label %8

8:                                                ; preds = %0, %30
  %9 = phi i32 [ %32, %30 ], [ 3, %0 ]
  %10 = phi i32 [ %31, %30 ], [ -1, %0 ]
  %11 = icmp ult i32 %9, 4
  br i1 %11, label %26, label %21

12:                                               ; preds = %30
  %13 = icmp sgt i32 %31, 0
  br i1 %13, label %14, label %50

14:                                               ; preds = %12
  %15 = zext i32 %31 to i64
  %16 = getelementptr inbounds [10000 x i32], [10000 x i32]* %2, i64 0, i64 0
  %17 = load i32, i32* %16, align 16, !tbaa !5
  br label %34

18:                                               ; preds = %21
  %19 = mul nsw i32 %25, %25
  %20 = icmp ugt i32 %19, %9
  br i1 %20, label %26, label %21, !llvm.loop !9

21:                                               ; preds = %8, %18
  %22 = phi i32 [ %25, %18 ], [ 2, %8 ]
  %23 = urem i32 %9, %22
  %24 = icmp eq i32 %23, 0
  %25 = add nuw nsw i32 %22, 1
  br i1 %24, label %30, label %18

26:                                               ; preds = %18, %8
  %27 = add nsw i32 %10, 1
  %28 = sext i32 %27 to i64
  %29 = getelementptr inbounds [10000 x i32], [10000 x i32]* %2, i64 0, i64 %28
  store i32 %9, i32* %29, align 4, !tbaa !5
  br label %30

30:                                               ; preds = %21, %26
  %31 = phi i32 [ %27, %26 ], [ %10, %21 ]
  %32 = add nuw i32 %9, 1
  %33 = icmp eq i32 %9, %6
  br i1 %33, label %12, label %8, !llvm.loop !11

34:                                               ; preds = %14, %45
  %35 = phi i32 [ %17, %14 ], [ %40, %45 ]
  %36 = phi i64 [ 0, %14 ], [ %38, %45 ]
  %37 = phi i32 [ 0, %14 ], [ %46, %45 ]
  %38 = add nuw nsw i64 %36, 1
  %39 = getelementptr inbounds [10000 x i32], [10000 x i32]* %2, i64 0, i64 %38
  %40 = load i32, i32* %39, align 4, !tbaa !5
  %41 = sub nsw i32 %40, %35
  %42 = icmp eq i32 %41, 2
  br i1 %42, label %43, label %45

43:                                               ; preds = %34
  %44 = call i32 (i8*, ...) @printf(i8* nonnull dereferenceable(1) getelementptr inbounds ([7 x i8], [7 x i8]* @.str.1, i64 0, i64 0), i32 %35, i32 %40)
  br label %45

45:                                               ; preds = %34, %43
  %46 = phi i32 [ 1, %43 ], [ %37, %34 ]
  %47 = icmp eq i64 %38, %15
  br i1 %47, label %48, label %34, !llvm.loop !12

48:                                               ; preds = %45
  %49 = icmp eq i32 %46, 0
  br i1 %49, label %50, label %52

50:                                               ; preds = %0, %12, %48
  %51 = call i32 (i8*, ...) @printf(i8* nonnull dereferenceable(1) getelementptr inbounds ([6 x i8], [6 x i8]* @.str.2, i64 0, i64 0))
  br label %52

52:                                               ; preds = %50, %48
  call void @llvm.lifetime.end.p0i8(i64 40000, i8* nonnull %4) #3
  call void @llvm.lifetime.end.p0i8(i64 4, i8* nonnull %3) #3
  ret void
}

; Function Attrs: argmemonly mustprogress nofree nosync nounwind willreturn
declare void @llvm.lifetime.start.p0i8(i64 immarg, i8* nocapture) #1

; Function Attrs: nofree nounwind
declare noundef i32 @__isoc99_scanf(i8* nocapture noundef readonly, ...) local_unnamed_addr #2

; Function Attrs: nofree nounwind
declare noundef i32 @printf(i8* nocapture noundef readonly, ...) local_unnamed_addr #2

; Function Attrs: argmemonly mustprogress nofree nosync nounwind willreturn
declare void @llvm.lifetime.end.p0i8(i64 immarg, i8* nocapture) #1


!llvm.module.flags = !{!0, !1, !2, !3}
!llvm.ident = !{!4}

!0 = !{i32 1, !"wchar_size", i32 4}
!1 = !{i32 7, !"PIC Level", i32 2}
!2 = !{i32 7, !"PIE Level", i32 2}
!3 = !{i32 7, !"uwtable", i32 1}
!4 = !{!"clang version 13.0.0"}
!5 = !{!6, !6, i64 0}
!6 = !{!"int", !7, i64 0}
!7 = !{!"omnipotent char", !8, i64 0}
!8 = !{!"Simple C/C++ TBAA"}
!9 = distinct !{!9, !10}
!10 = !{!"llvm.loop.mustprogress"}
!11 = distinct !{!11, !10}
!12 = distinct !{!12, !10}
